target datalayout = "e-m:e-p270:32:32-p271:32:32-p272:64:64-i64:64-i128:128-f80:128-n8:16:32:64-S128"
target triple = "x86_64-pc-linux-gnu"

%struct.H5T_t = type { %struct.H5O_shared_t, ptr, %struct.H5O_loc_t, %struct.H5G_name_t, ptr }
%struct.H5O_shared_t = type { i32, ptr, i32, %union.anon }
%union.anon = type { %struct.H5O_mesg_loc_t }
%struct.H5O_mesg_loc_t = type { i32, i64 }
%struct.H5O_loc_t = type { ptr, i64, i8 }
%struct.H5G_name_t = type { ptr, ptr, i32 }

@.str.2 = private unnamed_addr constant [97 x i8] c"generated/home/dtcxzyw/WorkSpace/Projects/compilers/llvm-opt-benchmark/bench/hdf5/hdf5/src/H5T.c\00", align 1
@H5E_DATATYPE_g = external global i64, align 8
@H5E_CANTINIT_g = external global i64, align 8
@H5E_CANTALLOC_g = external global i64, align 8
@.str.11 = private unnamed_addr constant [26 x i8] c"invalid datatype location\00", align 1
@H5E_CANTRELEASE_g = external global i64, align 8
@H5E_CANTDECODE_g = external global i64, align 8
@.str.281 = private unnamed_addr constant [20 x i8] c"can't decode object\00", align 1
@.str.283 = private unnamed_addr constant [32 x i8] c"can't allocate fake file struct\00", align 1
@.str.286 = private unnamed_addr constant [35 x i8] c"unable to release fake file struct\00", align 1
@__func__.H5T_decode = private unnamed_addr constant [11 x i8] c"H5T_decode\00", align 1
@H5E_BADMESG_g = external global i64, align 8
@.str.287 = private unnamed_addr constant [24 x i8] c"not an encoded datatype\00", align 1
@H5E_VERSION_g = external global i64, align 8
@.str.288 = private unnamed_addr constant [36 x i8] c"unknown version of encoded datatype\00", align 1

; Function Attrs: nounwind uwtable
define ptr @H5T_decode(i64 noundef %0, ptr noundef %1) #0 {
  %3 = alloca i64, align 8
  %4 = alloca ptr, align 8
  %5 = alloca ptr, align 8
  %6 = alloca ptr, align 8
  %7 = alloca i8, align 1
  store i64 %0, ptr %3, align 8
  store ptr %1, ptr %4, align 8
  store ptr null, ptr %5, align 8
  store ptr null, ptr %6, align 8
  store i8 0, ptr %7, align 1
  %8 = call ptr @H5F_fake_alloc(i8 noundef zeroext 0)
  store ptr %8, ptr %5, align 8
  %9 = icmp eq ptr null, %8
  br i1 %9, label %10, label %25

10:                                               ; preds = %2
  br label %11

11:                                               ; preds = %10
  br label %12

12:                                               ; preds = %11
  br label %13

13:                                               ; preds = %12
  %14 = load i64, ptr @H5E_DATATYPE_g, align 8
  %15 = load i64, ptr @H5E_CANTALLOC_g, align 8
  %16 = call i32 (ptr, ptr, i32, i64, i64, ptr, ...) @H5E_printf_stack(ptr noundef @.str.2, ptr noundef @__func__.H5T_decode, i32 noundef 3324, i64 noundef %14, i64 noundef %15, ptr noundef @.str.283)
  br label %17

17:                                               ; preds = %13
  store i8 1, ptr %7, align 1
  %18 = load i8, ptr %7, align 1
  %19 = trunc i8 %18 to i1
  %20 = zext i1 %19 to i8
  store i8 %20, ptr %7, align 1
  br label %21

21:                                               ; preds = %17
  br label %22

22:                                               ; preds = %21
  store ptr null, ptr %6, align 8
  br label %110

23:                                               ; No predecessors!
  br label %24

24:                                               ; preds = %23
  br label %25

25:                                               ; preds = %24, %2
  %26 = load ptr, ptr %4, align 8
  %27 = getelementptr inbounds i8, ptr %26, i32 1
  store ptr %27, ptr %4, align 8
  %28 = load i8, ptr %26, align 1
  %29 = zext i8 %28 to i32
  %30 = icmp ne i32 %29, 3
  br i1 %30, label %31, label %46

31:                                               ; preds = %25
  br label %32

32:                                               ; preds = %31
  br label %33

33:                                               ; preds = %32
  br label %34

34:                                               ; preds = %33
  %35 = load i64, ptr @H5E_DATATYPE_g, align 8
  %36 = load i64, ptr @H5E_BADMESG_g, align 8
  %37 = call i32 (ptr, ptr, i32, i64, i64, ptr, ...) @H5E_printf_stack(ptr noundef @.str.2, ptr noundef @__func__.H5T_decode, i32 noundef 3328, i64 noundef %35, i64 noundef %36, ptr noundef @.str.287)
  br label %38

38:                                               ; preds = %34
  store i8 1, ptr %7, align 1
  %39 = load i8, ptr %7, align 1
  %40 = trunc i8 %39 to i1
  %41 = zext i1 %40 to i8
  store i8 %41, ptr %7, align 1
  br label %42

42:                                               ; preds = %38
  br label %43

43:                                               ; preds = %42
  store ptr null, ptr %6, align 8
  br label %110

44:                                               ; No predecessors!
  br label %45

45:                                               ; preds = %44
  br label %46

46:                                               ; preds = %45, %25
  %47 = load ptr, ptr %4, align 8
  %48 = getelementptr inbounds i8, ptr %47, i32 1
  store ptr %48, ptr %4, align 8
  %49 = load i8, ptr %47, align 1
  %50 = zext i8 %49 to i32
  %51 = icmp ne i32 %50, 0
  br i1 %51, label %52, label %67

52:                                               ; preds = %46
  br label %53

53:                                               ; preds = %52
  br label %54

54:                                               ; preds = %53
  br label %55

55:                                               ; preds = %54
  %56 = load i64, ptr @H5E_DATATYPE_g, align 8
  %57 = load i64, ptr @H5E_VERSION_g, align 8
  %58 = call i32 (ptr, ptr, i32, i64, i64, ptr, ...) @H5E_printf_stack(ptr noundef @.str.2, ptr noundef @__func__.H5T_decode, i32 noundef 3332, i64 noundef %56, i64 noundef %57, ptr noundef @.str.288)
  br label %59

59:                                               ; preds = %55
  store i8 1, ptr %7, align 1
  %60 = load i8, ptr %7, align 1
  %61 = trunc i8 %60 to i1
  %62 = zext i1 %61 to i8
  store i8 %62, ptr %7, align 1
  br label %63

63:                                               ; preds = %59
  br label %64

64:                                               ; preds = %63
  store ptr null, ptr %6, align 8
  br label %110

65:                                               ; No predecessors!
  br label %66

66:                                               ; preds = %65
  br label %67

67:                                               ; preds = %66, %46
  %68 = load ptr, ptr %5, align 8
  %69 = load i64, ptr %3, align 8
  %70 = load ptr, ptr %4, align 8
  %71 = call ptr @H5O_msg_decode(ptr noundef %68, ptr noundef null, i32 noundef 3, i64 noundef %69, ptr noundef %70)
  store ptr %71, ptr %6, align 8
  %72 = icmp eq ptr null, %71
  br i1 %72, label %73, label %88

73:                                               ; preds = %67
  br label %74

74:                                               ; preds = %73
  br label %75

75:                                               ; preds = %74
  br label %76

76:                                               ; preds = %75
  %77 = load i64, ptr @H5E_DATATYPE_g, align 8
  %78 = load i64, ptr @H5E_CANTDECODE_g, align 8
  %79 = call i32 (ptr, ptr, i32, i64, i64, ptr, ...) @H5E_printf_stack(ptr noundef @.str.2, ptr noundef @__func__.H5T_decode, i32 noundef 3336, i64 noundef %77, i64 noundef %78, ptr noundef @.str.281)
  br label %80

80:                                               ; preds = %76
  store i8 1, ptr %7, align 1
  %81 = load i8, ptr %7, align 1
  %82 = trunc i8 %81 to i1
  %83 = zext i1 %82 to i8
  store i8 %83, ptr %7, align 1
  br label %84

84:                                               ; preds = %80
  br label %85

85:                                               ; preds = %84
  store ptr null, ptr %6, align 8
  br label %110

86:                                               ; No predecessors!
  br label %87

87:                                               ; preds = %86
  br label %88

88:                                               ; preds = %87, %67
  %89 = load ptr, ptr %6, align 8
  %90 = call i32 @H5T_set_loc(ptr noundef %89, ptr noundef null, i32 noundef 1)
  %91 = icmp slt i32 %90, 0
  br i1 %91, label %92, label %107

92:                                               ; preds = %88
  br label %93

93:                                               ; preds = %92
  br label %94

94:                                               ; preds = %93
  br label %95

95:                                               ; preds = %94
  %96 = load i64, ptr @H5E_DATATYPE_g, align 8
  %97 = load i64, ptr @H5E_CANTINIT_g, align 8
  %98 = call i32 (ptr, ptr, i32, i64, i64, ptr, ...) @H5E_printf_stack(ptr noundef @.str.2, ptr noundef @__func__.H5T_decode, i32 noundef 3340, i64 noundef %96, i64 noundef %97, ptr noundef @.str.11)
  br label %99

99:                                               ; preds = %95
  store i8 1, ptr %7, align 1
  %100 = load i8, ptr %7, align 1
  %101 = trunc i8 %100 to i1
  %102 = zext i1 %101 to i8
  store i8 %102, ptr %7, align 1
  br label %103

103:                                              ; preds = %99
  br label %104

104:                                              ; preds = %103
  store ptr null, ptr %6, align 8
  br label %110

105:                                              ; No predecessors!
  br label %106

106:                                              ; preds = %105
  br label %107

107:                                              ; preds = %106, %88
  %108 = load ptr, ptr %6, align 8
  %109 = getelementptr inbounds %struct.H5T_t, ptr %108, i32 0, i32 4
  store ptr null, ptr %109, align 8
  br label %110

110:                                              ; preds = %107, %104, %85, %64, %43, %22
  %111 = load ptr, ptr %5, align 8
  %112 = icmp ne ptr %111, null
  br i1 %112, label %113, label %130

113:                                              ; preds = %110
  %114 = load ptr, ptr %5, align 8
  %115 = call i32 @H5F_fake_free(ptr noundef %114)
  %116 = icmp slt i32 %115, 0
  br i1 %116, label %117, label %130

117:                                              ; preds = %113
  br label %118

118:                                              ; preds = %117
  br label %119

119:                                              ; preds = %118
  br label %120

120:                                              ; preds = %119
  %121 = load i64, ptr @H5E_DATATYPE_g, align 8
  %122 = load i64, ptr @H5E_CANTRELEASE_g, align 8
  %123 = call i32 (ptr, ptr, i32, i64, i64, ptr, ...) @H5E_printf_stack(ptr noundef @.str.2, ptr noundef @__func__.H5T_decode, i32 noundef 3347, i64 noundef %121, i64 noundef %122, ptr noundef @.str.286)
  br label %124

124:                                              ; preds = %120
  store i8 1, ptr %7, align 1
  %125 = load i8, ptr %7, align 1
  %126 = trunc i8 %125 to i1
  %127 = zext i1 %126 to i8
  store i8 %127, ptr %7, align 1
  br label %128

128:                                              ; preds = %124
  store ptr null, ptr %6, align 8
  br label %129

129:                                              ; preds = %128
  br label %130

130:                                              ; preds = %129, %113, %110
  %131 = load ptr, ptr %6, align 8
  ret ptr %131
}