; Function Attrs: nounwind uwtable
define ptr @H5T_decode(i64 noundef %0, ptr noundef %1) local_unnamed_addr #0 {
  %3 = tail call ptr @H5F_fake_alloc(i8 noundef zeroext 0) #17
  %4 = icmp eq ptr %3, null
  br i1 %4, label %35, label %5

5:                                                ; preds = %2
  %6 = load i8, ptr %1, align 1
  %.not = icmp eq i8 %6, 3
  br i1 %.not, label %11, label %7

7:                                                ; preds = %5
  %8 = load i64, ptr @H5E_DATATYPE_g, align 8
  %9 = load i64, ptr @H5E_BADMESG_g, align 8
  %10 = tail call i32 (ptr, ptr, i32, i64, i64, ptr, ...) @H5E_printf_stack(ptr noundef nonnull @.str.2, ptr noundef nonnull @__func__.H5T_decode, i32 noundef 3328, i64 noundef %8, i64 noundef %9, ptr noundef nonnull @.str.287) #17
  br label %39

11:                                               ; preds = %5
  %12 = getelementptr inbounds i8, ptr %1, i64 1
  %13 = load i8, ptr %12, align 1
  %.not18 = icmp eq i8 %13, 0
  br i1 %.not18, label %18, label %14

14:                                               ; preds = %11
  %15 = load i64, ptr @H5E_DATATYPE_g, align 8
  %16 = load i64, ptr @H5E_VERSION_g, align 8
  %17 = tail call i32 (ptr, ptr, i32, i64, i64, ptr, ...) @H5E_printf_stack(ptr noundef nonnull @.str.2, ptr noundef nonnull @__func__.H5T_decode, i32 noundef 3332, i64 noundef %15, i64 noundef %16, ptr noundef nonnull @.str.288) #17
  br label %39

18:                                               ; preds = %11
  %19 = getelementptr inbounds i8, ptr %1, i64 2
  %20 = tail call ptr @H5O_msg_decode(ptr noundef nonnull %3, ptr noundef null, i32 noundef 3, i64 noundef %0, ptr noundef nonnull %19) #17
  %21 = icmp eq ptr %20, null
  br i1 %21, label %22, label %26

22:                                               ; preds = %18
  %23 = load i64, ptr @H5E_DATATYPE_g, align 8
  %24 = load i64, ptr @H5E_CANTDECODE_g, align 8
  %25 = tail call i32 (ptr, ptr, i32, i64, i64, ptr, ...) @H5E_printf_stack(ptr noundef nonnull @.str.2, ptr noundef nonnull @__func__.H5T_decode, i32 noundef 3336, i64 noundef %23, i64 noundef %24, ptr noundef nonnull @.str.281) #17
  br label %39

26:                                               ; preds = %18
  %27 = tail call i32 @H5T_set_loc(ptr noundef nonnull %20, ptr noundef null, i32 noundef 1)
  %28 = icmp slt i32 %27, 0
  br i1 %28, label %29, label %33

29:                                               ; preds = %26
  %30 = load i64, ptr @H5E_DATATYPE_g, align 8
  %31 = load i64, ptr @H5E_CANTINIT_g, align 8
  %32 = tail call i32 (ptr, ptr, i32, i64, i64, ptr, ...) @H5E_printf_stack(ptr noundef nonnull @.str.2, ptr noundef nonnull @__func__.H5T_decode, i32 noundef 3340, i64 noundef %30, i64 noundef %31, ptr noundef nonnull @.str.11) #17
  br label %39

33:                                               ; preds = %26
  %34 = getelementptr inbounds i8, ptr %20, i64 96
  store ptr null, ptr %34, align 8
  br label %39

35:                                               ; preds = %2
  %36 = load i64, ptr @H5E_DATATYPE_g, align 8
  %37 = load i64, ptr @H5E_CANTALLOC_g, align 8
  %38 = tail call i32 (ptr, ptr, i32, i64, i64, ptr, ...) @H5E_printf_stack(ptr noundef nonnull @.str.2, ptr noundef nonnull @__func__.H5T_decode, i32 noundef 3324, i64 noundef %36, i64 noundef %37, ptr noundef nonnull @.str.283) #17
  br label %46

39:                                               ; preds = %33, %29, %22, %14, %7
  %.0.ph = phi ptr [ %20, %33 ], [ null, %29 ], [ null, %22 ], [ null, %14 ], [ null, %7 ]
  %40 = tail call i32 @H5F_fake_free(ptr noundef nonnull %3) #17
  %41 = icmp slt i32 %40, 0
  br i1 %41, label %42, label %46

42:                                               ; preds = %39
  %43 = load i64, ptr @H5E_DATATYPE_g, align 8
  %44 = load i64, ptr @H5E_CANTRELEASE_g, align 8
  %45 = tail call i32 (ptr, ptr, i32, i64, i64, ptr, ...) @H5E_printf_stack(ptr noundef nonnull @.str.2, ptr noundef nonnull @__func__.H5T_decode, i32 noundef 3347, i64 noundef %43, i64 noundef %44, ptr noundef nonnull @.str.286) #17
  br label %46

46:                                               ; preds = %35, %42, %39
  %.1 = phi ptr [ null, %42 ], [ %.0.ph, %39 ], [ null, %35 ]
  ret ptr %.1
}